target datalayout = "e-m:e-p270:32:32-p271:32:32-p272:64:64-i64:64-i128:128-f80:128-n8:16:32:64-S128"
target triple = "x86_64-pc-linux-gnu"

%struct.WebPData = type { ptr, i64 }
%struct.WebPChunk = type { i32, i32, %struct.WebPData, ptr }

; Function Attrs: nounwind uwtable
define internal i32 @DeleteChunks(ptr noundef %0, i32 noundef %1) #0 {
  %3 = alloca ptr, align 8
  %4 = alloca i32, align 4
  %5 = alloca i32, align 4
  %6 = alloca ptr, align 8
  store ptr %0, ptr %3, align 8, !tbaa !52
  store i32 %1, ptr %4, align 4, !tbaa !3
  call void @llvm.lifetime.start.p0(i64 4, ptr %5) #7
  store i32 0, ptr %5, align 4, !tbaa !3
  br label %7

7:                                                ; preds = %26, %2
  %8 = load ptr, ptr %3, align 8, !tbaa !52
  %9 = load ptr, ptr %8, align 8, !tbaa !71
  %10 = icmp ne ptr %9, null
  br i1 %10, label %11, label %27

11:                                               ; preds = %7
  call void @llvm.lifetime.start.p0(i64 8, ptr %6) #7
  %12 = load ptr, ptr %3, align 8, !tbaa !52
  %13 = load ptr, ptr %12, align 8, !tbaa !71
  store ptr %13, ptr %6, align 8, !tbaa !71
  %14 = load ptr, ptr %6, align 8, !tbaa !71
  %15 = getelementptr inbounds nuw %struct.WebPChunk, ptr %14, i32 0, i32 0
  %16 = load i32, ptr %15, align 8, !tbaa !39
  %17 = load i32, ptr %4, align 4, !tbaa !3
  %18 = icmp eq i32 %16, %17
  br i1 %18, label %19, label %23

19:                                               ; preds = %11
  %20 = load ptr, ptr %6, align 8, !tbaa !71
  %21 = call ptr @ChunkDelete(ptr noundef %20)
  %22 = load ptr, ptr %3, align 8, !tbaa !52
  store ptr %21, ptr %22, align 8, !tbaa !71
  store i32 1, ptr %5, align 4, !tbaa !3
  br label %26

23:                                               ; preds = %11
  %24 = load ptr, ptr %6, align 8, !tbaa !71
  %25 = getelementptr inbounds nuw %struct.WebPChunk, ptr %24, i32 0, i32 3
  store ptr %25, ptr %3, align 8, !tbaa !52
  br label %26

26:                                               ; preds = %23, %19
  call void @llvm.lifetime.end.p0(i64 8, ptr %6) #7
  br label %7, !llvm.loop !72

27:                                               ; preds = %7
  %28 = load i32, ptr %5, align 4, !tbaa !3
  call void @llvm.lifetime.end.p0(i64 4, ptr %5) #7
  ret i32 %28
}

; Function Attrs: inlinehint nounwind uwtable
define internal i32 @IsWPI(i32 noundef %0) #4 {
  %2 = alloca i32, align 4
  %3 = alloca i32, align 4
  store i32 %0, ptr %3, align 4, !tbaa !3
  %4 = load i32, ptr %3, align 4, !tbaa !3
  switch i32 %4, label %6 [
    i32 3, label %5
    i32 5, label %5
    i32 6, label %5
  ]

5:                                                ; preds = %1, %1, %1
  store i32 1, ptr %2, align 4
  br label %7

6:                                                ; preds = %1
  store i32 0, ptr %2, align 4
  br label %7

7:                                                ; preds = %6, %5
  %8 = load i32, ptr %2, align 4
  ret i32 %8
}

; Function Attrs: nounwind uwtable
define internal i32 @MuxDeleteAllNamedData(ptr noundef %0, i32 noundef %1) #0 {
  %3 = alloca i32, align 4
  %4 = alloca ptr, align 8
  %5 = alloca i32, align 4
  %6 = alloca i32, align 4
  %7 = alloca i32, align 4
  store ptr %0, ptr %4, align 8, !tbaa !7
  store i32 %1, ptr %5, align 4, !tbaa !3
  call void @llvm.lifetime.start.p0(i64 4, ptr %6) #7
  %8 = load i32, ptr %5, align 4, !tbaa !3
  %9 = call i32 @ChunkGetIdFromTag(i32 noundef %8)
  store i32 %9, ptr %6, align 4, !tbaa !3
  %10 = load i32, ptr %6, align 4, !tbaa !3
  %11 = call i32 @IsWPI(i32 noundef %10)
  %12 = icmp ne i32 %11, 0
  br i1 %12, label %13, label %14

13:                                               ; preds = %2
  store i32 -1, ptr %3, align 4
  store i32 1, ptr %7, align 4
  br label %20

14:                                               ; preds = %2
  %15 = load ptr, ptr %4, align 8, !tbaa !7
  %16 = load i32, ptr %6, align 4, !tbaa !3
  %17 = call ptr @MuxGetChunkListFromId(ptr noundef %15, i32 noundef %16)
  %18 = load i32, ptr %5, align 4, !tbaa !3
  %19 = call i32 @DeleteChunks(ptr noundef %17, i32 noundef %18)
  store i32 %19, ptr %3, align 4
  store i32 1, ptr %7, align 4
  br label %20

20:                                               ; preds = %14, %13
  call void @llvm.lifetime.end.p0(i64 4, ptr %6) #7
  %21 = load i32, ptr %3, align 4
  ret i32 %21
}

; Function Attrs: nounwind uwtable
define i32 @WebPMuxSetChunk(ptr noundef %0, ptr noundef %1, ptr noundef %2, i32 noundef %3) #0 {
  %5 = alloca i32, align 4
  %6 = alloca ptr, align 8
  %7 = alloca ptr, align 8
  %8 = alloca ptr, align 8
  %9 = alloca i32, align 4
  %10 = alloca i32, align 4
  %11 = alloca i32, align 4
  %12 = alloca i32, align 4
  store ptr %0, ptr %6, align 8, !tbaa !7
  store ptr %1, ptr %7, align 8, !tbaa !15
  store ptr %2, ptr %8, align 8, !tbaa !17
  store i32 %3, ptr %9, align 4, !tbaa !3
  call void @llvm.lifetime.start.p0(i64 4, ptr %10) #7
  call void @llvm.lifetime.start.p0(i64 4, ptr %11) #7
  %13 = load ptr, ptr %6, align 8, !tbaa !7
  %14 = icmp eq ptr %13, null
  br i1 %14, label %31, label %15

15:                                               ; preds = %4
  %16 = load ptr, ptr %7, align 8, !tbaa !15
  %17 = icmp eq ptr %16, null
  br i1 %17, label %31, label %18

18:                                               ; preds = %15
  %19 = load ptr, ptr %8, align 8, !tbaa !17
  %20 = icmp eq ptr %19, null
  br i1 %20, label %31, label %21

21:                                               ; preds = %18
  %22 = load ptr, ptr %8, align 8, !tbaa !17
  %23 = getelementptr inbounds nuw %struct.WebPData, ptr %22, i32 0, i32 0
  %24 = load ptr, ptr %23, align 8, !tbaa !19
  %25 = icmp eq ptr %24, null
  br i1 %25, label %31, label %26

26:                                               ; preds = %21
  %27 = load ptr, ptr %8, align 8, !tbaa !17
  %28 = getelementptr inbounds nuw %struct.WebPData, ptr %27, i32 0, i32 1
  %29 = load i64, ptr %28, align 8, !tbaa !22
  %30 = icmp ugt i64 %29, 4294967286
  br i1 %30, label %31, label %32

31:                                               ; preds = %26, %21, %18, %15, %4
  store i32 -1, ptr %5, align 4
  store i32 1, ptr %12, align 4
  br label %51

32:                                               ; preds = %26
  %33 = load ptr, ptr %7, align 8, !tbaa !15
  %34 = call i32 @ChunkGetTagFromFourCC(ptr noundef %33)
  store i32 %34, ptr %10, align 4, !tbaa !3
  %35 = load ptr, ptr %6, align 8, !tbaa !7
  %36 = load i32, ptr %10, align 4, !tbaa !3
  %37 = call i32 @MuxDeleteAllNamedData(ptr noundef %35, i32 noundef %36)
  store i32 %37, ptr %11, align 4, !tbaa !3
  %38 = load i32, ptr %11, align 4, !tbaa !3
  %39 = icmp ne i32 %38, 1
  br i1 %39, label %40, label %45

40:                                               ; preds = %32
  %41 = load i32, ptr %11, align 4, !tbaa !3
  %42 = icmp ne i32 %41, 0
  br i1 %42, label %43, label %45

43:                                               ; preds = %40
  %44 = load i32, ptr %11, align 4, !tbaa !3
  store i32 %44, ptr %5, align 4
  store i32 1, ptr %12, align 4
  br label %51

45:                                               ; preds = %40, %32
  %46 = load ptr, ptr %6, align 8, !tbaa !7
  %47 = load i32, ptr %10, align 4, !tbaa !3
  %48 = load ptr, ptr %8, align 8, !tbaa !17
  %49 = load i32, ptr %9, align 4, !tbaa !3
  %50 = call i32 @MuxSet(ptr noundef %46, i32 noundef %47, ptr noundef %48, i32 noundef %49)
  store i32 %50, ptr %5, align 4
  store i32 1, ptr %12, align 4
  br label %51

51:                                               ; preds = %45, %43, %31
  call void @llvm.lifetime.end.p0(i64 4, ptr %11) #7
  call void @llvm.lifetime.end.p0(i64 4, ptr %10) #7
  %52 = load i32, ptr %5, align 4
  ret i32 %52
}