; Function Attrs: nounwind uwtable
define i32 @WebPMuxSetChunk(ptr noundef %0, ptr noundef %1, ptr noundef %2, i32 noundef %3) local_unnamed_addr #0 {
  %5 = icmp eq ptr %0, null
  %6 = icmp eq ptr %1, null
  %or.cond = or i1 %5, %6
  %7 = icmp eq ptr %2, null
  %or.cond3 = or i1 %or.cond, %7
  br i1 %or.cond3, label %MuxDeleteAllNamedData.exit.thread, label %8

8:                                                ; preds = %4
  %9 = load ptr, ptr %2, align 8, !tbaa !10
  %10 = icmp eq ptr %9, null
  br i1 %10, label %MuxDeleteAllNamedData.exit.thread, label %11

11:                                               ; preds = %8
  %12 = getelementptr inbounds nuw i8, ptr %2, i64 8
  %13 = load i64, ptr %12, align 8, !tbaa !14
  %14 = icmp ugt i64 %13, 4294967286
  br i1 %14, label %MuxDeleteAllNamedData.exit.thread, label %15

15:                                               ; preds = %11
  %16 = tail call i32 @ChunkGetTagFromFourCC(ptr noundef nonnull %1) #7
  %17 = tail call i32 @ChunkGetIdFromTag(i32 noundef %16) #7
  switch i32 %17, label %18 [
    i32 3, label %MuxDeleteAllNamedData.exit.thread
    i32 5, label %MuxDeleteAllNamedData.exit.thread
    i32 6, label %MuxDeleteAllNamedData.exit.thread
  ]

18:                                               ; preds = %15
  %19 = tail call ptr @MuxGetChunkListFromId(ptr noundef nonnull %0, i32 noundef %17) #7
  %20 = load ptr, ptr %19, align 8, !tbaa !15
  %.not10.i.i = icmp eq ptr %20, null
  br i1 %.not10.i.i, label %MuxDeleteAllNamedData.exit.thread26, label %.lr.ph.i.i

.lr.ph.i.i:                                       ; preds = %18, %28
  %21 = phi ptr [ %29, %28 ], [ %20, %18 ]
  %.012.i.i = phi ptr [ %.1.i.i, %28 ], [ %19, %18 ]
  %22 = load i32, ptr %21, align 8, !tbaa !17
  %23 = icmp eq i32 %22, %16
  br i1 %23, label %24, label %26

24:                                               ; preds = %.lr.ph.i.i
  %25 = tail call ptr @ChunkDelete(ptr noundef nonnull %21) #7
  store ptr %25, ptr %.012.i.i, align 8, !tbaa !15
  br label %28

26:                                               ; preds = %.lr.ph.i.i
  %27 = getelementptr inbounds nuw i8, ptr %21, i64 24
  %.pre.i.i = load ptr, ptr %27, align 8, !tbaa !15
  br label %28

28:                                               ; preds = %26, %24
  %29 = phi ptr [ %25, %24 ], [ %.pre.i.i, %26 ]
  %.1.i.i = phi ptr [ %.012.i.i, %24 ], [ %27, %26 ]
  %.not.i.i = icmp eq ptr %29, null
  br i1 %.not.i.i, label %MuxDeleteAllNamedData.exit.thread26, label %.lr.ph.i.i, !llvm.loop !20

MuxDeleteAllNamedData.exit.thread26:              ; preds = %28, %18
  %30 = tail call fastcc i32 @MuxSet(ptr noundef %0, i32 noundef %16, ptr noundef %2, i32 noundef %3)
  br label %MuxDeleteAllNamedData.exit.thread

MuxDeleteAllNamedData.exit.thread:                ; preds = %15, %15, %15, %4, %8, %11, %MuxDeleteAllNamedData.exit.thread26
  %.0 = phi i32 [ %30, %MuxDeleteAllNamedData.exit.thread26 ], [ -1, %11 ], [ -1, %8 ], [ -1, %4 ], [ -1, %15 ], [ -1, %15 ], [ -1, %15 ]
  ret i32 %.0
}